; ModuleID = 'source-C-CXX/24/383.cpp'
source_filename = "source-C-CXX/24/383.cpp"
target datalayout = "e-m:e-p270:32:32-p271:32:32-p272:64:64-i64:64-f80:128-n8:16:32:64-S128"
target triple = "x86_64-pc-linux-gnu"

%"class.std::ios_base::Init" = type { i8 }
%"class.std::basic_istream" = type { i32 (...)**, i64, %"class.std::basic_ios" }
%"class.std::basic_ios" = type { %"class.std::ios_base", %"class.std::basic_ostream"*, i8, i8, %"class.std::basic_streambuf"*, %"class.std::ctype"*, %"class.std::num_put"*, %"class.std::num_get"* }
%"class.std::ios_base" = type { i32 (...)**, i64, i64, i32, i32, i32, %"struct.std::ios_base::_Callback_list"*, %"struct.std::ios_base::_Words", [8 x %"struct.std::ios_base::_Words"], i32, %"struct.std::ios_base::_Words"*, %"class.std::locale" }
%"struct.std::ios_base::_Callback_list" = type { %"struct.std::ios_base::_Callback_list"*, void (i32, %"class.std::ios_base"*, i32)*, i32, i32 }
%"struct.std::ios_base::_Words" = type { i8*, i64 }
%"class.std::locale" = type { %"class.std::locale::_Impl"* }
%"class.std::locale::_Impl" = type { i32, %"class.std::locale::facet"**, i64, %"class.std::locale::facet"**, i8** }
%"class.std::locale::facet" = type <{ i32 (...)**, i32, [4 x i8] }>
%"class.std::basic_ostream" = type { i32 (...)**, %"class.std::basic_ios" }
%"class.std::basic_streambuf" = type { i32 (...)**, i8*, i8*, i8*, i8*, i8*, i8*, %"class.std::locale" }
%"class.std::ctype" = type <{ %"class.std::locale::facet.base", [4 x i8], %struct.__locale_struct*, i8, [7 x i8], i32*, i32*, i16*, i8, [256 x i8], [256 x i8], i8, [6 x i8] }>
%"class.std::locale::facet.base" = type <{ i32 (...)**, i32 }>
%struct.__locale_struct = type { [13 x %struct.__locale_data*], i16*, i32*, i32*, [13 x i8*] }
%struct.__locale_data = type opaque
%"class.std::num_put" = type { %"class.std::locale::facet.base", [4 x i8] }
%"class.std::num_get" = type { %"class.std::locale::facet.base", [4 x i8] }

@_ZStL8__ioinit = internal global %"class.std::ios_base::Init" zeroinitializer, align 1
@__dso_handle = external hidden global i8
@_ZSt3cin = external global %"class.std::basic_istream", align 8
@_ZSt4cout = external global %"class.std::basic_ostream", align 8
@llvm.global_ctors = appending global [1 x { i32, void ()*, i8* }] [{ i32, void ()*, i8* } { i32 65535, void ()* @_GLOBAL__sub_I_383.cpp, i8* null }]

declare void @_ZNSt8ios_base4InitC1Ev(%"class.std::ios_base::Init"* nonnull align 1 dereferenceable(1)) unnamed_addr #0

; Function Attrs: nounwind
declare void @_ZNSt8ios_base4InitD1Ev(%"class.std::ios_base::Init"* nonnull align 1 dereferenceable(1)) unnamed_addr #1

; Function Attrs: nofree nounwind
declare i32 @__cxa_atexit(void (i8*)*, i8*, i8*) local_unnamed_addr #2

; Function Attrs: mustprogress norecurse sspstrong uwtable
define dso_local i32 @main() local_unnamed_addr #3 {
  %1 = alloca [100 x i32], align 16
  %2 = alloca i32, align 4
  %3 = bitcast [100 x i32]* %1 to i8*
  call void @llvm.lifetime.start.p0i8(i64 400, i8* nonnull %3) #8
  call void @llvm.memset.p0i8.i64(i8* noundef nonnull align 16 dereferenceable(400) %3, i8 0, i64 400, i1 false)
  %4 = getelementptr inbounds [100 x i32], [100 x i32]* %1, i64 0, i64 0
  store i32 1, i32* %4, align 16, !tbaa !5
  %5 = bitcast i32* %2 to i8*
  call void @llvm.lifetime.start.p0i8(i64 4, i8* nonnull %5) #8
  %6 = call nonnull align 8 dereferenceable(16) %"class.std::basic_istream"* @_ZNSirsERi(%"class.std::basic_istream"* nonnull align 8 dereferenceable(16) @_ZSt3cin, i32* nonnull align 4 dereferenceable(4) %2)
  %7 = load i32, i32* %2, align 4, !tbaa !5
  %8 = icmp slt i32 %7, 1
  br i1 %8, label %37, label %9

9:                                                ; preds = %0, %34
  %10 = phi i32 [ %35, %34 ], [ 1, %0 ]
  %11 = phi i32 [ %31, %34 ], [ 0, %0 ]
  br label %12

12:                                               ; preds = %12, %9
  %13 = phi i64 [ 0, %9 ], [ %32, %12 ]
  %14 = phi i32 [ %11, %9 ], [ %31, %12 ]
  %15 = getelementptr inbounds [100 x i32], [100 x i32]* %1, i64 0, i64 %13
  %16 = load i32, i32* %15, align 8, !tbaa !5
  %17 = shl nsw i32 %16, 1
  %18 = add nsw i32 %17, %14
  %19 = icmp sgt i32 %18, 9
  %20 = urem i32 %18, 10
  %21 = select i1 %19, i32 %20, i32 %18
  %22 = zext i1 %19 to i32
  store i32 %21, i32* %15, align 8, !tbaa !5
  %23 = or i64 %13, 1
  %24 = getelementptr inbounds [100 x i32], [100 x i32]* %1, i64 0, i64 %23
  %25 = load i32, i32* %24, align 4, !tbaa !5
  %26 = shl nsw i32 %25, 1
  %27 = or i32 %26, %22
  %28 = icmp sgt i32 %27, 9
  %29 = urem i32 %27, 10
  %30 = select i1 %28, i32 %29, i32 %27
  %31 = zext i1 %28 to i32
  store i32 %30, i32* %24, align 4, !tbaa !5
  %32 = add nuw nsw i64 %13, 2
  %33 = icmp eq i64 %32, 100
  br i1 %33, label %34, label %12, !llvm.loop !9

34:                                               ; preds = %12
  %35 = add nuw i32 %10, 1
  %36 = icmp eq i32 %10, %7
  br i1 %36, label %37, label %9, !llvm.loop !11

37:                                               ; preds = %34, %0
  br label %38

38:                                               ; preds = %108, %37
  %39 = phi i32 [ 99, %37 ], [ %109, %108 ]
  %40 = zext i32 %39 to i64
  %41 = getelementptr inbounds [100 x i32], [100 x i32]* %1, i64 0, i64 %40
  %42 = load i32, i32* %41, align 4, !tbaa !5
  %43 = icmp eq i32 %42, 0
  br i1 %43, label %44, label %50

44:                                               ; preds = %38
  %45 = add nsw i32 %39, -1
  %46 = zext i32 %45 to i64
  %47 = getelementptr inbounds [100 x i32], [100 x i32]* %1, i64 0, i64 %46
  %48 = load i32, i32* %47, align 4, !tbaa !5
  %49 = icmp eq i32 %48, 0
  br i1 %49, label %90, label %50

50:                                               ; preds = %102, %96, %90, %44, %38
  %51 = phi i32 [ %39, %38 ], [ %45, %44 ], [ %91, %90 ], [ %97, %96 ], [ %103, %102 ]
  %52 = icmp sgt i32 %51, -1
  br i1 %52, label %53, label %62

53:                                               ; preds = %50
  %54 = zext i32 %51 to i64
  br label %55

55:                                               ; preds = %53, %55
  %56 = phi i64 [ %54, %53 ], [ %61, %55 ]
  %57 = getelementptr inbounds [100 x i32], [100 x i32]* %1, i64 0, i64 %56
  %58 = load i32, i32* %57, align 4, !tbaa !5
  %59 = call nonnull align 8 dereferenceable(8) %"class.std::basic_ostream"* @_ZNSolsEi(%"class.std::basic_ostream"* nonnull align 8 dereferenceable(8) @_ZSt4cout, i32 %58)
  %60 = icmp sgt i64 %56, 0
  %61 = add nsw i64 %56, -1
  br i1 %60, label %55, label %62, !llvm.loop !12

62:                                               ; preds = %108, %55, %50
  %63 = load i8*, i8** bitcast (%"class.std::basic_ostream"* @_ZSt4cout to i8**), align 8, !tbaa !13
  %64 = getelementptr i8, i8* %63, i64 -24
  %65 = bitcast i8* %64 to i64*
  %66 = load i64, i64* %65, align 8
  %67 = add nsw i64 %66, 240
  %68 = getelementptr inbounds i8, i8* bitcast (%"class.std::basic_ostream"* @_ZSt4cout to i8*), i64 %67
  %69 = bitcast i8* %68 to %"class.std::ctype"**
  %70 = load %"class.std::ctype"*, %"class.std::ctype"** %69, align 8, !tbaa !15
  %71 = icmp eq %"class.std::ctype"* %70, null
  br i1 %71, label %72, label %73

72:                                               ; preds = %62
  call void @_ZSt16__throw_bad_castv() #9
  unreachable

73:                                               ; preds = %62
  %74 = getelementptr inbounds %"class.std::ctype", %"class.std::ctype"* %70, i64 0, i32 8
  %75 = load i8, i8* %74, align 8, !tbaa !19
  %76 = icmp eq i8 %75, 0
  br i1 %76, label %80, label %77

77:                                               ; preds = %73
  %78 = getelementptr inbounds %"class.std::ctype", %"class.std::ctype"* %70, i64 0, i32 9, i64 10
  %79 = load i8, i8* %78, align 1, !tbaa !21
  br label %86

80:                                               ; preds = %73
  call void @_ZNKSt5ctypeIcE13_M_widen_initEv(%"class.std::ctype"* nonnull align 8 dereferenceable(570) %70)
  %81 = bitcast %"class.std::ctype"* %70 to i8 (%"class.std::ctype"*, i8)***
  %82 = load i8 (%"class.std::ctype"*, i8)**, i8 (%"class.std::ctype"*, i8)*** %81, align 8, !tbaa !13
  %83 = getelementptr inbounds i8 (%"class.std::ctype"*, i8)*, i8 (%"class.std::ctype"*, i8)** %82, i64 6
  %84 = load i8 (%"class.std::ctype"*, i8)*, i8 (%"class.std::ctype"*, i8)** %83, align 8
  %85 = call signext i8 %84(%"class.std::ctype"* nonnull align 8 dereferenceable(570) %70, i8 signext 10)
  br label %86

86:                                               ; preds = %77, %80
  %87 = phi i8 [ %79, %77 ], [ %85, %80 ]
  %88 = call nonnull align 8 dereferenceable(8) %"class.std::basic_ostream"* @_ZNSo3putEc(%"class.std::basic_ostream"* nonnull align 8 dereferenceable(8) @_ZSt4cout, i8 signext %87)
  %89 = call nonnull align 8 dereferenceable(8) %"class.std::basic_ostream"* @_ZNSo5flushEv(%"class.std::basic_ostream"* nonnull align 8 dereferenceable(8) %88)
  call void @llvm.lifetime.end.p0i8(i64 4, i8* nonnull %5) #8
  call void @llvm.lifetime.end.p0i8(i64 400, i8* nonnull %3) #8
  ret i32 0

90:                                               ; preds = %44
  %91 = add nsw i32 %39, -2
  %92 = zext i32 %91 to i64
  %93 = getelementptr inbounds [100 x i32], [100 x i32]* %1, i64 0, i64 %92
  %94 = load i32, i32* %93, align 4, !tbaa !5
  %95 = icmp eq i32 %94, 0
  br i1 %95, label %96, label %50

96:                                               ; preds = %90
  %97 = add nsw i32 %39, -3
  %98 = zext i32 %97 to i64
  %99 = getelementptr inbounds [100 x i32], [100 x i32]* %1, i64 0, i64 %98
  %100 = load i32, i32* %99, align 4, !tbaa !5
  %101 = icmp eq i32 %100, 0
  br i1 %101, label %102, label %50

102:                                              ; preds = %96
  %103 = add nsw i32 %39, -4
  %104 = zext i32 %103 to i64
  %105 = getelementptr inbounds [100 x i32], [100 x i32]* %1, i64 0, i64 %104
  %106 = load i32, i32* %105, align 4, !tbaa !5
  %107 = icmp eq i32 %106, 0
  br i1 %107, label %108, label %50

108:                                              ; preds = %102
  %109 = add nsw i32 %39, -5
  %110 = icmp eq i32 %103, 0
  br i1 %110, label %62, label %38, !llvm.loop !22
}

; Function Attrs: argmemonly mustprogress nofree nosync nounwind willreturn
declare void @llvm.lifetime.start.p0i8(i64 immarg, i8* nocapture) #4

; Function Attrs: argmemonly mustprogress nofree nounwind willreturn writeonly
declare void @llvm.memset.p0i8.i64(i8* nocapture writeonly, i8, i64, i1 immarg) #5

declare nonnull align 8 dereferenceable(16) %"class.std::basic_istream"* @_ZNSirsERi(%"class.std::basic_istream"* nonnull align 8 dereferenceable(16), i32* nonnull align 4 dereferenceable(4)) local_unnamed_addr #0

declare nonnull align 8 dereferenceable(8) %"class.std::basic_ostream"* @_ZNSolsEi(%"class.std::basic_ostream"* nonnull align 8 dereferenceable(8), i32) local_unnamed_addr #0

; Function Attrs: argmemonly mustprogress nofree nosync nounwind willreturn
declare void @llvm.lifetime.end.p0i8(i64 immarg, i8* nocapture) #4

declare nonnull align 8 dereferenceable(8) %"class.std::basic_ostream"* @_ZNSo3putEc(%"class.std::basic_ostream"* nonnull align 8 dereferenceable(8), i8 signext) local_unnamed_addr #0

declare nonnull align 8 dereferenceable(8) %"class.std::basic_ostream"* @_ZNSo5flushEv(%"class.std::basic_ostream"* nonnull align 8 dereferenceable(8)) local_unnamed_addr #0

; Function Attrs: noreturn
declare void @_ZSt16__throw_bad_castv() local_unnamed_addr #6

declare void @_ZNKSt5ctypeIcE13_M_widen_initEv(%"class.std::ctype"* nonnull align 8 dereferenceable(570)) local_unnamed_addr #0

; Function Attrs: sspstrong uwtable
define internal void @_GLOBAL__sub_I_383.cpp() #7 section ".text.startup" {
  tail call void @_ZNSt8ios_base4InitC1Ev(%"class.std::ios_base::Init"* nonnull align 1 dereferenceable(1) @_ZStL8__ioinit)
  %1 = tail call i32 @__cxa_atexit(void (i8*)* bitcast (void (%"class.std::ios_base::Init"*)* @_ZNSt8ios_base4InitD1Ev to void (i8*)*), i8* getelementptr inbounds (%"class.std::ios_base::Init", %"class.std::ios_base::Init"* @_ZStL8__ioinit, i64 0, i32 0), i8* nonnull @__dso_handle) #8
  ret void
}


!llvm.module.flags = !{!0, !1, !2, !3}
!llvm.ident = !{!4}

!0 = !{i32 1, !"wchar_size", i32 4}
!1 = !{i32 7, !"PIC Level", i32 2}
!2 = !{i32 7, !"PIE Level", i32 2}
!3 = !{i32 7, !"uwtable", i32 1}
!4 = !{!"clang version 13.0.0"}
!5 = !{!6, !6, i64 0}
!6 = !{!"int", !7, i64 0}
!7 = !{!"omnipotent char", !8, i64 0}
!8 = !{!"Simple C++ TBAA"}
!9 = distinct !{!9, !10}
!10 = !{!"llvm.loop.mustprogress"}
!11 = distinct !{!11, !10}
!12 = distinct !{!12, !10}
!13 = !{!14, !14, i64 0}
!14 = !{!"vtable pointer", !8, i64 0}
!15 = !{!16, !17, i64 240}
!16 = !{!"_ZTSSt9basic_iosIcSt11char_traitsIcEE", !17, i64 216, !7, i64 224, !18, i64 225, !17, i64 232, !17, i64 240, !17, i64 248, !17, i64 256}
!17 = !{!"any pointer", !7, i64 0}
!18 = !{!"bool", !7, i64 0}
!19 = !{!20, !7, i64 56}
!20 = !{!"_ZTSSt5ctypeIcE", !17, i64 16, !18, i64 24, !17, i64 32, !17, i64 40, !17, i64 48, !7, i64 56, !7, i64 57, !7, i64 313, !7, i64 569}
!21 = !{!7, !7, i64 0}
!22 = distinct !{!22, !10}
